target datalayout = "e-m:e-p270:32:32-p271:32:32-p272:64:64-i64:64-i128:128-f80:128-n8:16:32:64-S128"
target triple = "x86_64-pc-linux-gnu"

; Function Attrs: nounwind uwtable
define i32 @wc_Sha512Copy(ptr noundef %0, ptr noundef %1) #0 {
  %3 = alloca i32, align 4
  %4 = alloca ptr, align 8
  %5 = alloca ptr, align 8
  %6 = alloca i32, align 4
  %7 = alloca i32, align 4
  store ptr %0, ptr %4, align 8, !tbaa !3
  store ptr %1, ptr %5, align 8, !tbaa !3
  call void @llvm.lifetime.start.p0(i64 4, ptr %6) #5
  store i32 0, ptr %6, align 4, !tbaa !9
  %8 = load ptr, ptr %4, align 8, !tbaa !3
  %9 = icmp eq ptr %8, null
  br i1 %9, label %13, label %10

10:                                               ; preds = %2
  %11 = load ptr, ptr %5, align 8, !tbaa !3
  %12 = icmp eq ptr %11, null
  br i1 %12, label %13, label %14

13:                                               ; preds = %10, %2
  store i32 -173, ptr %3, align 4
  store i32 1, ptr %7, align 4
  br label %18

14:                                               ; preds = %10
  %15 = load ptr, ptr %5, align 8, !tbaa !3
  %16 = load ptr, ptr %4, align 8, !tbaa !3
  call void @llvm.memcpy.p0.p0.i64(ptr align 8 %15, ptr align 8 %16, i64 224, i1 false)
  %17 = load i32, ptr %6, align 4, !tbaa !9
  store i32 %17, ptr %3, align 4
  store i32 1, ptr %7, align 4
  br label %18

18:                                               ; preds = %14, %13
  call void @llvm.lifetime.end.p0(i64 4, ptr %6) #5
  %19 = load i32, ptr %3, align 4
  ret i32 %19
}

; Function Attrs: nounwind uwtable
define i32 @wc_Sha512_256Copy(ptr noundef %0, ptr noundef %1) #0 {
  %3 = alloca ptr, align 8
  %4 = alloca ptr, align 8
  store ptr %0, ptr %3, align 8, !tbaa !3
  store ptr %1, ptr %4, align 8, !tbaa !3
  %5 = load ptr, ptr %3, align 8, !tbaa !3
  %6 = load ptr, ptr %4, align 8, !tbaa !3
  %7 = call i32 @wc_Sha512Copy(ptr noundef %5, ptr noundef %6)
  ret i32 %7
}